target datalayout = "e-m:e-p270:32:32-p271:32:32-p272:64:64-i64:64-i128:128-f80:128-n8:16:32:64-S128"
target triple = "x86_64-unknown-linux-gnu"

%struct.alts_handshaker_client_vtable = type { ptr, ptr, ptr, ptr, ptr }
%struct.alts_handshaker_client = type { ptr }

@.str = private unnamed_addr constant [142 x i8] c"generated/home/dtcxzyw/WorkSpace/Projects/compilers/llvm-opt-benchmark/bench/grpc/grpc/src/core/tsi/alts/handshaker/alts_handshaker_client.cc\00", align 1
@.str.22 = private unnamed_addr constant [59 x i8] c"client or client->vtable has not been initialized properly\00", align 1

; Function Attrs: mustprogress uwtable
define noundef i32 @_Z27alts_handshaker_client_nextP22alts_handshaker_clientP10grpc_slice(ptr noundef %client, ptr noundef %bytes_received) #4 {
entry:
  %retval = alloca i32, align 4
  %client.addr = alloca ptr, align 8
  %bytes_received.addr = alloca ptr, align 8
  store ptr %client, ptr %client.addr, align 8
  store ptr %bytes_received, ptr %bytes_received.addr, align 8
  %0 = load ptr, ptr %client.addr, align 8
  %cmp = icmp ne ptr %0, null
  br i1 %cmp, label %land.lhs.true, label %if.end

land.lhs.true:                                    ; preds = %entry
  %1 = load ptr, ptr %client.addr, align 8
  %vtable = getelementptr inbounds %struct.alts_handshaker_client, ptr %1, i32 0, i32 0
  %2 = load ptr, ptr %vtable, align 8
  %cmp1 = icmp ne ptr %2, null
  br i1 %cmp1, label %land.lhs.true2, label %if.end

land.lhs.true2:                                   ; preds = %land.lhs.true
  %3 = load ptr, ptr %client.addr, align 8
  %vtable3 = getelementptr inbounds %struct.alts_handshaker_client, ptr %3, i32 0, i32 0
  %4 = load ptr, ptr %vtable3, align 8
  %next = getelementptr inbounds %struct.alts_handshaker_client_vtable, ptr %4, i32 0, i32 2
  %5 = load ptr, ptr %next, align 8
  %cmp4 = icmp ne ptr %5, null
  br i1 %cmp4, label %if.then, label %if.end

if.then:                                          ; preds = %land.lhs.true2
  %6 = load ptr, ptr %client.addr, align 8
  %vtable5 = getelementptr inbounds %struct.alts_handshaker_client, ptr %6, i32 0, i32 0
  %7 = load ptr, ptr %vtable5, align 8
  %next6 = getelementptr inbounds %struct.alts_handshaker_client_vtable, ptr %7, i32 0, i32 2
  %8 = load ptr, ptr %next6, align 8
  %9 = load ptr, ptr %client.addr, align 8
  %10 = load ptr, ptr %bytes_received.addr, align 8
  %call = call noundef i32 %8(ptr noundef %9, ptr noundef %10)
  store i32 %call, ptr %retval, align 4
  br label %return

if.end:                                           ; preds = %land.lhs.true2, %land.lhs.true, %entry
  call void (ptr, i32, i32, ptr, ...) @gpr_log(ptr noundef @.str, i32 noundef 913, i32 noundef 2, ptr noundef @.str.22)
  store i32 2, ptr %retval, align 4
  br label %return

return:                                           ; preds = %if.end, %if.then
  %11 = load i32, ptr %retval, align 4
  ret i32 %11
}